target datalayout = "e-m:e-p270:32:32-p271:32:32-p272:64:64-i64:64-i128:128-f80:128-n8:16:32:64-S128"
target triple = "x86_64-pc-linux-gnu"

%struct.Kit_DsdNtk_t_ = type { i16, i16, i16, i16, ptr, ptr, ptr }

; Function Attrs: nounwind uwtable
define ptr @Kit_DsdNonDsdPrimeMax(ptr noundef %0) #0 {
  %2 = alloca ptr, align 8
  %3 = alloca ptr, align 8
  %4 = alloca ptr, align 8
  %5 = alloca i32, align 4
  %6 = alloca i32, align 4
  store ptr %0, ptr %2, align 8, !tbaa !37
  call void @llvm.lifetime.start.p0(i64 8, ptr %3) #9
  call void @llvm.lifetime.start.p0(i64 8, ptr %4) #9
  store ptr null, ptr %4, align 8, !tbaa !39
  call void @llvm.lifetime.start.p0(i64 4, ptr %5) #9
  call void @llvm.lifetime.start.p0(i64 4, ptr %6) #9
  store i32 0, ptr %6, align 4, !tbaa !3
  store i32 0, ptr %5, align 4, !tbaa !3
  br label %7

7:                                                ; preds = %44, %1
  %8 = load i32, ptr %5, align 4, !tbaa !3
  %9 = load ptr, ptr %2, align 8, !tbaa !37
  %10 = getelementptr inbounds nuw %struct.Kit_DsdNtk_t_, ptr %9, i32 0, i32 2
  %11 = load i16, ptr %10, align 4, !tbaa !45
  %12 = zext i16 %11 to i32
  %13 = icmp ult i32 %8, %12
  br i1 %13, label %14, label %23

14:                                               ; preds = %7
  %15 = load ptr, ptr %2, align 8, !tbaa !37
  %16 = getelementptr inbounds nuw %struct.Kit_DsdNtk_t_, ptr %15, i32 0, i32 6
  %17 = load ptr, ptr %16, align 8, !tbaa !47
  %18 = load i32, ptr %5, align 4, !tbaa !3
  %19 = zext i32 %18 to i64
  %20 = getelementptr inbounds nuw ptr, ptr %17, i64 %19
  %21 = load ptr, ptr %20, align 8, !tbaa !39
  store ptr %21, ptr %3, align 8, !tbaa !39
  %22 = icmp ne ptr %21, null
  br label %23

23:                                               ; preds = %14, %7
  %24 = phi i1 [ false, %7 ], [ %22, %14 ]
  br i1 %24, label %25, label %47

25:                                               ; preds = %23
  %26 = load ptr, ptr %3, align 8, !tbaa !39
  %27 = load i32, ptr %26, align 4
  %28 = lshr i32 %27, 6
  %29 = and i32 %28, 7
  %30 = icmp ne i32 %29, 5
  br i1 %30, label %31, label %32

31:                                               ; preds = %25
  br label %44

32:                                               ; preds = %25
  %33 = load i32, ptr %6, align 4, !tbaa !3
  %34 = load ptr, ptr %3, align 8, !tbaa !39
  %35 = load i32, ptr %34, align 4
  %36 = lshr i32 %35, 26
  %37 = icmp ult i32 %33, %36
  br i1 %37, label %38, label %43

38:                                               ; preds = %32
  %39 = load ptr, ptr %3, align 8, !tbaa !39
  %40 = load i32, ptr %39, align 4
  %41 = lshr i32 %40, 26
  store i32 %41, ptr %6, align 4, !tbaa !3
  %42 = load ptr, ptr %3, align 8, !tbaa !39
  store ptr %42, ptr %4, align 8, !tbaa !39
  br label %43

43:                                               ; preds = %38, %32
  br label %44

44:                                               ; preds = %43, %31
  %45 = load i32, ptr %5, align 4, !tbaa !3
  %46 = add i32 %45, 1
  store i32 %46, ptr %5, align 4, !tbaa !3
  br label %7, !llvm.loop !98

47:                                               ; preds = %23
  %48 = load ptr, ptr %4, align 8, !tbaa !39
  call void @llvm.lifetime.end.p0(i64 4, ptr %6) #9
  call void @llvm.lifetime.end.p0(i64 4, ptr %5) #9
  call void @llvm.lifetime.end.p0(i64 8, ptr %4) #9
  call void @llvm.lifetime.end.p0(i64 8, ptr %3) #9
  ret ptr %48
}